	.file	"simulator.c"
	.text
.Ltext0:
	.globl	car_list_chance
	.data
	.align 4
	.type	car_list_chance, @object
	.size	car_list_chance, 4
car_list_chance:
	.long	50
	.comm	CP,24,16
	.globl	fireState
	.bss
	.align 4
	.type	fireState, @object
	.size	fireState, 4
fireState:
	.zero	4
	.section	.rodata
	.align 8
.LC0:
	.string	"Enter F to trigger Creeping Fire Alarm Event"
	.align 8
.LC1:
	.string	"Enter G to trigger Spike Fire Alarm Event"
.LC2:
	.string	"PARKING"
	.align 8
.LC3:
	.string	"Increasing Temperature Over Time"
	.align 8
.LC4:
	.string	"Increasing Temperature Instantly"
	.text
	.globl	main
	.type	main, @function
main:
.LFB6:
	.file 1 "simulator.c"
	.loc 1 37 1
	.cfi_startproc
	pushq	%rbp
	.cfi_def_cfa_offset 16
	.cfi_offset 6, -16
	movq	%rsp, %rbp
	.cfi_def_cfa_register 6
	subq	$64, %rsp
	.loc 1 38 5
	leaq	.LC0(%rip), %rdi
	call	puts@PLT
	.loc 1 39 5
	leaq	.LC1(%rip), %rdi
	call	puts@PLT
	.loc 1 41 5
	leaq	.LC2(%rip), %rsi
	leaq	CP(%rip), %rdi
	call	shared_mem_init
	.loc 1 44 5
	movl	$0, %eax
	call	init_gates
.LBB2:
	.loc 1 49 13
	movl	$0, -60(%rbp)
	.loc 1 49 5
	jmp	.L2
.L3:
	.loc 1 51 34 discriminator 3
	movl	-60(%rbp), %edx
	.loc 1 51 9 discriminator 3
	leaq	-48(%rbp), %rax
	movslq	%edx, %rdx
	salq	$3, %rdx
	leaq	(%rax,%rdx), %rdi
	leaq	-60(%rbp), %rax
	movq	%rax, %rcx
	leaq	toggleGate(%rip), %rdx
	movl	$0, %esi
	call	pthread_create@PLT
	.loc 1 49 28 discriminator 3
	movl	-60(%rbp), %eax
	addl	$1, %eax
	movl	%eax, -60(%rbp)
.L2:
	.loc 1 49 22 discriminator 1
	movl	-60(%rbp), %eax
	.loc 1 49 5 discriminator 1
	testl	%eax, %eax
	jle	.L3
.LBE2:
	.loc 1 57 12
	movb	$0, -49(%rbp)
.LBB3:
	.loc 1 58 13
	movl	$0, -4(%rbp)
	.loc 1 58 5
	jmp	.L4
.L5:
	.loc 1 60 9 discriminator 3
	leaq	-55(%rbp), %rax
	movq	%rax, %rdi
	movl	$0, %eax
	call	LPR_generator
	.loc 1 61 9 discriminator 3
	leaq	-55(%rbp), %rax
	movq	%rax, %rdi
	call	puts@PLT
	.loc 1 58 30 discriminator 3
	addl	$1, -4(%rbp)
.L4:
	.loc 1 58 5 discriminator 1
	cmpl	$499, -4(%rbp)
	jle	.L5
.L8:
.LBE3:
	.loc 1 65 13
	movq	stdin(%rip), %rax
	movq	%rax, %rdi
	call	fgetc@PLT
	.loc 1 65 12
	cmpl	$102, %eax
	jne	.L6
	.loc 1 66 13
	leaq	.LC3(%rip), %rdi
	movl	$0, %eax
	call	printf@PLT
	.loc 1 67 23
	movl	$1, fireState(%rip)
	jmp	.L8
.L6:
	.loc 1 68 20
	movq	stdin(%rip), %rax
	movq	%rax, %rdi
	call	fgetc@PLT
	.loc 1 68 19
	cmpl	$103, %eax
	jne	.L8
	.loc 1 69 13
	leaq	.LC4(%rip), %rdi
	movl	$0, %eax
	call	printf@PLT
	.loc 1 70 23
	movl	$2, fireState(%rip)
	.loc 1 65 12
	jmp	.L8
	.cfi_endproc
.LFE6:
	.size	main, .-main
	.section	.rodata
.LC5:
	.string	"shm_open"
.LC6:
	.string	"ftruncate"
.LC7:
	.string	"mmap"
.LC8:
	.string	"shared mem pointer: %p\n"
	.text
	.globl	shared_mem_init
	.type	shared_mem_init, @function
shared_mem_init:
.LFB7:
	.loc 1 80 1
	.cfi_startproc
	pushq	%rbp
	.cfi_def_cfa_offset 16
	.cfi_offset 6, -16
	movq	%rsp, %rbp
	.cfi_def_cfa_register 6
	subq	$16, %rsp
	movq	%rdi, -8(%rbp)
	movq	%rsi, -16(%rbp)
	.loc 1 81 5
	movq	-16(%rbp), %rax
	movq	%rax, %rdi
	call	shm_unlink@PLT
	.loc 1 82 14
	movq	-8(%rbp), %rax
	movq	-16(%rbp), %rdx
	movq	%rdx, (%rax)
	.loc 1 85 19
	movq	-8(%rbp), %rax
	movq	(%rax), %rax
	movl	$438, %edx
	movl	$66, %esi
	movq	%rax, %rdi
	call	shm_open@PLT
	movl	%eax, %edx
	.loc 1 85 17
	movq	-8(%rbp), %rax
	movl	%edx, 8(%rax)
	.loc 1 85 12
	movq	-8(%rbp), %rax
	movl	8(%rax), %eax
	.loc 1 85 7
	testl	%eax, %eax
	jns	.L10
	.loc 1 87 9
	leaq	.LC5(%rip), %rdi
	call	perror@PLT
	.loc 1 88 15
	movl	$1, %eax
	jmp	.L11
.L10:
	.loc 1 92 8
	movq	-8(%rbp), %rax
	movl	8(%rax), %eax
	movl	$2120, %esi
	movl	%eax, %edi
	call	ftruncate@PLT
	.loc 1 92 7
	testl	%eax, %eax
	jns	.L12
	.loc 1 94 9
	leaq	.LC6(%rip), %rdi
	call	perror@PLT
	.loc 1 95 15
	movl	$1, %eax
	jmp	.L11
.L12:
	.loc 1 99 24
	movq	-8(%rbp), %rax
	movl	8(%rax), %eax
	movl	$0, %r9d
	movl	%eax, %r8d
	movl	$1, %ecx
	movl	$2, %edx
	movl	$2120, %esi
	movl	$0, %edi
	call	mmap@PLT
	movq	%rax, %rdx
	.loc 1 99 22
	movq	-8(%rbp), %rax
	movq	%rdx, 16(%rax)
	.loc 1 99 12
	movq	-8(%rbp), %rax
	movq	16(%rax), %rax
	.loc 1 99 7
	cmpq	$-1, %rax
	jne	.L13
	.loc 1 101 9
	leaq	.LC7(%rip), %rdi
	call	perror@PLT
	.loc 1 102 15
	movl	$1, %eax
	jmp	.L11
.L13:
	.loc 1 106 5
	movq	-8(%rbp), %rax
	movq	16(%rax), %rax
	movq	%rax, %rsi
	leaq	.LC8(%rip), %rdi
	movl	$0, %eax
	call	printf@PLT
	.loc 1 107 11
	movl	$0, %eax
.L11:
	.loc 1 108 1
	leave
	.cfi_def_cfa 7, 8
	ret
	.cfi_endproc
.LFE7:
	.size	shared_mem_init, .-shared_mem_init
	.globl	clear_memory
	.type	clear_memory, @function
clear_memory:
.LFB8:
	.loc 1 111 36
	.cfi_startproc
	pushq	%rbp
	.cfi_def_cfa_offset 16
	.cfi_offset 6, -16
	movq	%rsp, %rbp
	.cfi_def_cfa_register 6
	subq	$16, %rsp
	movq	%rdi, -8(%rbp)
	.loc 1 113 15
	movq	-8(%rbp), %rax
	movq	16(%rax), %rax
	.loc 1 113 5
	movl	$2920, %esi
	movq	%rax, %rdi
	call	munmap@PLT
	.loc 1 114 5
	leaq	.LC2(%rip), %rdi
	call	shm_unlink@PLT
	.loc 1 115 13
	movq	-8(%rbp), %rax
	movl	$-1, 8(%rax)
	.loc 1 116 18
	movq	-8(%rbp), %rax
	movq	$0, 16(%rax)
	.loc 1 117 1
	nop
	leave
	.cfi_def_cfa 7, 8
	ret
	.cfi_endproc
.LFE8:
	.size	clear_memory, .-clear_memory
	.section	.rodata
.LC9:
	.string	"r"
.LC10:
	.string	"plates.txt"
	.text
	.globl	LPR_generator
	.type	LPR_generator, @function
LPR_generator:
.LFB9:
	.loc 1 122 1
	.cfi_startproc
	pushq	%rbp
	.cfi_def_cfa_offset 16
	.cfi_offset 6, -16
	movq	%rsp, %rbp
	.cfi_def_cfa_register 6
	subq	$48, %rsp
	movq	%rdi, -40(%rbp)
	.loc 1 124 13
	call	rand@PLT
	movl	%eax, %ecx
	.loc 1 124 20
	movl	$1374389535, %edx
	movl	%ecx, %eax
	imull	%edx
	sarl	$5, %edx
	movl	%ecx, %eax
	sarl	$31, %eax
	subl	%eax, %edx
	movl	%edx, %eax
	imull	$100, %eax, %eax
	subl	%eax, %ecx
	movl	%ecx, %eax
	.loc 1 124 26
	movl	car_list_chance(%rip), %edx
	.loc 1 124 12
	cmpl	%edx, %eax
	jg	.L16
.LBB4:
	.loc 1 128 30
	leaq	.LC9(%rip), %rsi
	leaq	.LC10(%rip), %rdi
	call	fopen@PLT
	movq	%rax, -16(%rbp)
	.loc 1 129 13
	movq	-16(%rbp), %rax
	movl	$2, %edx
	movl	$0, %esi
	movq	%rax, %rdi
	call	fseek@PLT
	.loc 1 130 36
	movq	-16(%rbp), %rax
	movq	%rax, %rdi
	call	ftell@PLT
	movq	%rax, %rcx
	.loc 1 130 52
	movabsq	$5270498306774157605, %rdx
	movq	%rcx, %rax
	imulq	%rdx
	sarq	%rdx
	movq	%rcx, %rax
	sarq	$63, %rax
	subq	%rax, %rdx
	movq	%rdx, %rax
	.loc 1 130 17
	movl	%eax, -20(%rbp)
	.loc 1 132 29
	call	rand@PLT
	.loc 1 132 36
	cltd
	idivl	-20(%rbp)
	.loc 1 132 55
	movl	%edx, %eax
	sall	$3, %eax
	subl	%edx, %eax
	.loc 1 132 13
	movslq	%eax, %rcx
	movq	-16(%rbp), %rax
	movl	$0, %edx
	movq	%rcx, %rsi
	movq	%rax, %rdi
	call	fseek@PLT
	.loc 1 133 13
	movq	-16(%rbp), %rdx
	movq	-40(%rbp), %rax
	movl	$7, %esi
	movq	%rax, %rdi
	call	fgets@PLT
	.loc 1 135 13
	movq	-16(%rbp), %rax
	movq	%rax, %rdi
	call	fclose@PLT
.LBE4:
	.loc 1 150 9
	jmp	.L23
.L16:
.LBB5:
	.loc 1 140 21
	movl	$0, -4(%rbp)
	.loc 1 140 13
	jmp	.L18
.L21:
	.loc 1 141 19
	cmpl	$2, -4(%rbp)
	jg	.L19
	.loc 1 142 37
	call	random@PLT
	movq	%rax, %rcx
	.loc 1 142 46
	movabsq	$7378697629483820647, %rdx
	movq	%rcx, %rax
	imulq	%rdx
	sarq	$2, %rdx
	movq	%rcx, %rax
	sarq	$63, %rax
	subq	%rax, %rdx
	movq	%rdx, %rax
	salq	$2, %rax
	addq	%rdx, %rax
	addq	%rax, %rax
	subq	%rax, %rcx
	movq	%rcx, %rdx
	.loc 1 142 34
	movl	%edx, %eax
	leal	48(%rax), %ecx
	.loc 1 142 24
	movl	-4(%rbp), %eax
	movslq	%eax, %rdx
	movq	-40(%rbp), %rax
	addq	%rdx, %rax
	.loc 1 142 34
	movl	%ecx, %edx
	.loc 1 142 28
	movb	%dl, (%rax)
	jmp	.L20
.L19:
	.loc 1 144 36
	call	random@PLT
	movq	%rax, %rcx
	.loc 1 144 45
	movabsq	$5675921253449092805, %rdx
	movq	%rcx, %rax
	imulq	%rdx
	sarq	$3, %rdx
	movq	%rcx, %rax
	sarq	$63, %rax
	subq	%rax, %rdx
	movq	%rdx, %rax
	addq	%rax, %rax
	addq	%rdx, %rax
	salq	$2, %rax
	addq	%rdx, %rax
	addq	%rax, %rax
	subq	%rax, %rcx
	movq	%rcx, %rdx
	.loc 1 144 34
	movl	%edx, %eax
	leal	65(%rax), %ecx
	.loc 1 144 24
	movl	-4(%rbp), %eax
	movslq	%eax, %rdx
	movq	-40(%rbp), %rax
	addq	%rdx, %rax
	.loc 1 144 34
	movl	%ecx, %edx
	.loc 1 144 28
	movb	%dl, (%rax)
.L20:
	.loc 1 140 36 discriminator 2
	addl	$1, -4(%rbp)
.L18:
	.loc 1 140 13 discriminator 1
	cmpl	$5, -4(%rbp)
	jle	.L21
.L23:
.LBE5:
	.loc 1 150 9
	nop
	.loc 1 159 1
	nop
	leave
	.cfi_def_cfa 7, 8
	ret
	.cfi_endproc
.LFE9:
	.size	LPR_generator, .-LPR_generator
	.globl	toggleGate
	.type	toggleGate, @function
toggleGate:
.LFB10:
	.loc 1 163 41
	.cfi_startproc
	pushq	%rbp
	.cfi_def_cfa_offset 16
	.cfi_offset 6, -16
	movq	%rsp, %rbp
	.cfi_def_cfa_register 6
	subq	$32, %rsp
	movq	%rdi, -24(%rbp)
	.loc 1 164 9
	movq	-24(%rbp), %rax
	movl	(%rax), %eax
	movl	%eax, -4(%rbp)
	.loc 1 165 28
	movq	16+CP(%rip), %rcx
	.loc 1 165 14
	movl	-4(%rbp), %eax
	movslq	%eax, %rdx
	movq	%rdx, %rax
	salq	$3, %rax
	addq	%rdx, %rax
	salq	$5, %rax
	addq	%rcx, %rax
	movq	%rax, -16(%rbp)
	.loc 1 167 5
	movq	-16(%rbp), %rax
	addq	$96, %rax
	movq	%rax, %rdi
	call	pthread_mutex_lock@PLT
.L27:
	.loc 1 175 20
	movq	-16(%rbp), %rax
	movzbl	184(%rax), %eax
	.loc 1 175 11
	cmpb	$82, %al
	jne	.L25
	.loc 1 180 35
	movq	-16(%rbp), %rax
	movb	$79, 184(%rax)
	.loc 1 182 13
	movq	-16(%rbp), %rax
	addq	$96, %rax
	movq	%rax, %rdi
	call	pthread_mutex_unlock@PLT
	jmp	.L26
.L25:
	.loc 1 192 35
	movq	-16(%rbp), %rax
	movb	$67, 184(%rax)
	.loc 1 194 13
	movq	-16(%rbp), %rax
	addq	$96, %rax
	movq	%rax, %rdi
	call	pthread_mutex_unlock@PLT
.L26:
	.loc 1 199 9
	movq	-16(%rbp), %rax
	addq	$232, %rax
	movq	%rax, %rdi
	call	pthread_cond_signal@PLT
	.loc 1 201 9
	movq	-16(%rbp), %rax
	leaq	96(%rax), %rdx
	movq	-16(%rbp), %rax
	addq	$136, %rax
	movq	%rdx, %rsi
	movq	%rax, %rdi
	call	pthread_cond_wait@PLT
	.loc 1 175 11
	jmp	.L27
	.cfi_endproc
.LFE10:
	.size	toggleGate, .-toggleGate
	.section	.rodata
.LC11:
	.string	"%p\n"
	.text
	.globl	init_gates
	.type	init_gates, @function
init_gates:
.LFB11:
	.loc 1 207 1
	.cfi_startproc
	pushq	%rbp
	.cfi_def_cfa_offset 16
	.cfi_offset 6, -16
	movq	%rsp, %rbp
	.cfi_def_cfa_register 6
	subq	$16, %rsp
	.loc 1 209 11
	movq	16+CP(%rip), %rax
	movq	%rax, -16(%rbp)
	.loc 1 210 5
	movq	-16(%rbp), %rax
	movq	%rax, %rsi
	leaq	.LC11(%rip), %rdi
	movl	$0, %eax
	call	printf@PLT
.LBB6:
	.loc 1 211 13
	movl	$0, -4(%rbp)
	.loc 1 211 5
	jmp	.L29
.L30:
	.loc 1 213 39 discriminator 3
	movq	-16(%rbp), %rcx
	movl	-4(%rbp), %eax
	movslq	%eax, %rdx
	movq	%rdx, %rax
	salq	$3, %rax
	addq	%rdx, %rax
	salq	$5, %rax
	addq	%rcx, %rax
	addq	$184, %rax
	movb	$67, (%rax)
	.loc 1 211 37 discriminator 3
	addl	$1, -4(%rbp)
.L29:
	.loc 1 211 5 discriminator 1
	cmpl	$4, -4(%rbp)
	jle	.L30
.LBE6:
	.loc 1 216 1
	nop
	leave
	.cfi_def_cfa 7, 8
	ret
	.cfi_endproc
.LFE11:
	.size	init_gates, .-init_gates
	.globl	generateTemperature
	.type	generateTemperature, @function
generateTemperature:
.LFB12:
	.loc 1 221 32
	.cfi_startproc
	pushq	%rbp
	.cfi_def_cfa_offset 16
	.cfi_offset 6, -16
	movq	%rsp, %rbp
	.cfi_def_cfa_register 6
	.loc 1 222 5
	movl	fireState(%rip), %eax
	cmpl	$1, %eax
	je	.L36
	cmpl	$2, %eax
	je	.L37
	.loc 1 231 13
	jmp	.L35
.L36:
	.loc 1 225 13
	nop
	jmp	.L35
.L37:
	.loc 1 228 13
	nop
.L35:
	.loc 1 233 1
	nop
	popq	%rbp
	.cfi_def_cfa 7, 8
	ret
	.cfi_endproc
.LFE12:
	.size	generateTemperature, .-generateTemperature
.Letext0:
	.file 2 "/usr/lib/gcc/x86_64-linux-gnu/8/include/stddef.h"
	.file 3 "/usr/include/x86_64-linux-gnu/bits/types.h"
	.file 4 "/usr/include/x86_64-linux-gnu/bits/types/struct_FILE.h"
	.file 5 "/usr/include/x86_64-linux-gnu/bits/types/FILE.h"
	.file 6 "/usr/include/stdio.h"
	.file 7 "/usr/include/x86_64-linux-gnu/bits/sys_errlist.h"
	.file 8 "/usr/include/x86_64-linux-gnu/bits/stdint-intn.h"
	.file 9 "/usr/include/x86_64-linux-gnu/bits/thread-shared-types.h"
	.file 10 "/usr/include/x86_64-linux-gnu/bits/pthreadtypes.h"
	.file 11 "/usr/include/time.h"
	.file 12 "/usr/include/unistd.h"
	.file 13 "/usr/include/x86_64-linux-gnu/bits/getopt_core.h"
	.file 14 "datas.h"
	.section	.note.GNU-stack,"",@progbits
